target datalayout = "e-m:e-p270:32:32-p271:32:32-p272:64:64-i64:64-i128:128-f80:128-n8:16:32:64-S128"
target triple = "x86_64-pc-linux-gnu"

%union.pthread_mutex_t = type { %struct.__pthread_mutex_s }
%struct.__pthread_mutex_s = type { i32, i32, i32, i32, i32, i16, i16, %struct.__pthread_internal_list }
%struct.__pthread_internal_list = type { ptr, ptr }
%union.pthread_cond_t = type { %struct.__pthread_cond_s }
%struct.__pthread_cond_s = type { %union.__atomic_wide_counter, %union.__atomic_wide_counter, [2 x i32], [2 x i32], i32, i32, [2 x i32] }
%union.__atomic_wide_counter = type { i64 }
%struct.jobgroup = type { %union.pthread_mutex_t, %union.pthread_cond_t, i32, i32, i32, i32, i32 }

@.str.20 = private unnamed_addr constant [32 x i8] c"THRMGR: active jobs for %p: %d\0A\00", align 1
@.str.21 = private unnamed_addr constant [32 x i8] c"THRMGR: group_finished: %p, %d\0A\00", align 1
@.str.22 = private unnamed_addr constant [36 x i8] c"THRMGR: group_finished: freeing %p\0A\00", align 1

; Function Attrs: nounwind uwtable
define dso_local i32 @thrmgr_group_finished(ptr noundef %0, i32 noundef %1) #0 {
  %3 = alloca i32, align 4
  %4 = alloca ptr, align 8
  %5 = alloca i32, align 4
  %6 = alloca i32, align 4
  store ptr %0, ptr %4, align 8
  store i32 %1, ptr %5, align 4
  store i32 0, ptr %6, align 4
  %7 = load ptr, ptr %4, align 8
  %8 = icmp ne ptr %7, null
  br i1 %8, label %10, label %9

9:                                                ; preds = %2
  store i32 1, ptr %3, align 4
  br label %81

10:                                               ; preds = %2
  %11 = load ptr, ptr %4, align 8
  %12 = getelementptr inbounds %struct.jobgroup, ptr %11, i32 0, i32 0
  %13 = call i32 @pthread_mutex_lock(ptr noundef %12) #8
  %14 = load ptr, ptr %4, align 8
  %15 = load ptr, ptr %4, align 8
  %16 = getelementptr inbounds %struct.jobgroup, ptr %15, i32 0, i32 2
  %17 = load i32, ptr %16, align 8
  %18 = call i32 (i32, ptr, ...) @logg(i32 noundef 3, ptr noundef @.str.21, ptr noundef %14, i32 noundef %17)
  %19 = load ptr, ptr %4, align 8
  %20 = getelementptr inbounds %struct.jobgroup, ptr %19, i32 0, i32 5
  %21 = load i32, ptr %20, align 4
  %22 = add i32 %21, 1
  store i32 %22, ptr %20, align 4
  %23 = load i32, ptr %5, align 4
  switch i32 %23, label %34 [
    i32 0, label %24
    i32 1, label %29
  ]

24:                                               ; preds = %10
  %25 = load ptr, ptr %4, align 8
  %26 = getelementptr inbounds %struct.jobgroup, ptr %25, i32 0, i32 3
  %27 = load i32, ptr %26, align 4
  %28 = add i32 %27, 1
  store i32 %28, ptr %26, align 4
  br label %35

29:                                               ; preds = %10
  %30 = load ptr, ptr %4, align 8
  %31 = getelementptr inbounds %struct.jobgroup, ptr %30, i32 0, i32 4
  %32 = load i32, ptr %31, align 8
  %33 = add i32 %32, 1
  store i32 %33, ptr %31, align 8
  br label %35

34:                                               ; preds = %10
  br label %35

35:                                               ; preds = %34, %29, %24
  %36 = load ptr, ptr %4, align 8
  %37 = getelementptr inbounds %struct.jobgroup, ptr %36, i32 0, i32 2
  %38 = load i32, ptr %37, align 8
  %39 = icmp ne i32 %38, 0
  br i1 %39, label %40, label %63

40:                                               ; preds = %35
  %41 = load ptr, ptr %4, align 8
  %42 = getelementptr inbounds %struct.jobgroup, ptr %41, i32 0, i32 2
  %43 = load i32, ptr %42, align 8
  %44 = add i32 %43, -1
  store i32 %44, ptr %42, align 8
  %45 = icmp ne i32 %44, 0
  br i1 %45, label %47, label %46

46:                                               ; preds = %40
  store i32 1, ptr %6, align 4
  br label %53

47:                                               ; preds = %40
  %48 = load ptr, ptr %4, align 8
  %49 = load ptr, ptr %4, align 8
  %50 = getelementptr inbounds %struct.jobgroup, ptr %49, i32 0, i32 2
  %51 = load i32, ptr %50, align 8
  %52 = call i32 (i32, ptr, ...) @logg(i32 noundef 3, ptr noundef @.str.20, ptr noundef %48, i32 noundef %51)
  br label %53

53:                                               ; preds = %47, %46
  %54 = load ptr, ptr %4, align 8
  %55 = getelementptr inbounds %struct.jobgroup, ptr %54, i32 0, i32 2
  %56 = load i32, ptr %55, align 8
  %57 = icmp eq i32 %56, 1
  br i1 %57, label %58, label %62

58:                                               ; preds = %53
  %59 = load ptr, ptr %4, align 8
  %60 = getelementptr inbounds %struct.jobgroup, ptr %59, i32 0, i32 1
  %61 = call i32 @pthread_cond_signal(ptr noundef %60) #8
  br label %62

62:                                               ; preds = %58, %53
  br label %63

63:                                               ; preds = %62, %35
  %64 = load ptr, ptr %4, align 8
  %65 = getelementptr inbounds %struct.jobgroup, ptr %64, i32 0, i32 0
  %66 = call i32 @pthread_mutex_unlock(ptr noundef %65) #8
  %67 = load i32, ptr %6, align 4
  %68 = icmp ne i32 %67, 0
  br i1 %68, label %69, label %79

69:                                               ; preds = %63
  %70 = load ptr, ptr %4, align 8
  %71 = call i32 (i32, ptr, ...) @logg(i32 noundef 3, ptr noundef @.str.22, ptr noundef %70)
  %72 = load ptr, ptr %4, align 8
  %73 = getelementptr inbounds %struct.jobgroup, ptr %72, i32 0, i32 0
  %74 = call i32 @pthread_mutex_destroy(ptr noundef %73) #8
  %75 = load ptr, ptr %4, align 8
  %76 = getelementptr inbounds %struct.jobgroup, ptr %75, i32 0, i32 1
  %77 = call i32 @pthread_cond_destroy(ptr noundef %76) #8
  %78 = load ptr, ptr %4, align 8
  call void @free(ptr noundef %78) #8
  br label %79

79:                                               ; preds = %69, %63
  %80 = load i32, ptr %6, align 4
  store i32 %80, ptr %3, align 4
  br label %81

81:                                               ; preds = %79, %9
  %82 = load i32, ptr %3, align 4
  ret i32 %82
}