; Function Attrs: nounwind uwtable
define dso_local noundef i32 @thrmgr_group_finished(ptr noundef %0, i32 noundef %1) local_unnamed_addr #0 {
  %.not = icmp eq ptr %0, null
  br i1 %.not, label %36, label %3

3:                                                ; preds = %2
  %4 = tail call i32 @pthread_mutex_lock(ptr noundef nonnull %0) #12
  %5 = getelementptr inbounds i8, ptr %0, i64 88
  %6 = load i32, ptr %5, align 8
  %7 = tail call i32 (i32, ptr, ...) @logg(i32 noundef 3, ptr noundef nonnull @.str.21, ptr noundef nonnull %0, i32 noundef %6) #12
  %8 = getelementptr inbounds i8, ptr %0, i64 100
  %9 = load i32, ptr %8, align 4
  %10 = add i32 %9, 1
  store i32 %10, ptr %8, align 4
  switch i32 %1, label %19 [
    i32 0, label %11
    i32 1, label %15
  ]

11:                                               ; preds = %3
  %12 = getelementptr inbounds i8, ptr %0, i64 92
  %13 = load i32, ptr %12, align 4
  %14 = add i32 %13, 1
  store i32 %14, ptr %12, align 4
  br label %19

15:                                               ; preds = %3
  %16 = getelementptr inbounds i8, ptr %0, i64 96
  %17 = load i32, ptr %16, align 8
  %18 = add i32 %17, 1
  store i32 %18, ptr %16, align 8
  br label %19

19:                                               ; preds = %3, %15, %11
  %20 = load i32, ptr %5, align 8
  %.not25 = icmp eq i32 %20, 0
  br i1 %.not25, label %.thread29, label %21

21:                                               ; preds = %19
  %22 = add i32 %20, -1
  store i32 %22, ptr %5, align 8
  %.not26 = icmp eq i32 %22, 0
  br i1 %.not26, label %30, label %23

23:                                               ; preds = %21
  %24 = tail call i32 (i32, ptr, ...) @logg(i32 noundef 3, ptr noundef nonnull @.str.20, ptr noundef nonnull %0, i32 noundef %22) #12
  %.pr = load i32, ptr %5, align 8
  %25 = icmp eq i32 %.pr, 1
  br i1 %25, label %26, label %.thread29

26:                                               ; preds = %23
  %27 = getelementptr inbounds i8, ptr %0, i64 40
  %28 = tail call i32 @pthread_cond_signal(ptr noundef nonnull %27) #12
  br label %.thread29

.thread29:                                        ; preds = %26, %23, %19
  %29 = tail call i32 @pthread_mutex_unlock(ptr noundef nonnull %0) #12
  br label %36

30:                                               ; preds = %21
  %31 = tail call i32 @pthread_mutex_unlock(ptr noundef nonnull %0) #12
  %32 = tail call i32 (i32, ptr, ...) @logg(i32 noundef 3, ptr noundef nonnull @.str.22, ptr noundef nonnull %0) #12
  %33 = tail call i32 @pthread_mutex_destroy(ptr noundef nonnull %0) #12
  %34 = getelementptr inbounds i8, ptr %0, i64 40
  %35 = tail call i32 @pthread_cond_destroy(ptr noundef nonnull %34) #12
  tail call void @free(ptr noundef nonnull %0) #12
  br label %36

36:                                               ; preds = %.thread29, %30, %2
  %.021 = phi i32 [ 1, %2 ], [ 1, %30 ], [ 0, %.thread29 ]
  ret i32 %.021
}